target datalayout = "e-m:e-p270:32:32-p271:32:32-p272:64:64-i64:64-i128:128-f80:128-n8:16:32:64-S128"
target triple = "x86_64-pc-linux-gnu"

%"class.std::exception" = type { ptr }
%"class.std::__1::__libcpp_refstring" = type { ptr }
%"struct.std::__1::__refstring_imp::(anonymous namespace)::_Rep_base" = type { i64, i64, i32 }
%"class.std::runtime_error" = type { %"class.std::exception", %"class.std::__1::__libcpp_refstring" }

@_ZTVSt13runtime_error = available_externally unnamed_addr constant { [5 x ptr] } { [5 x ptr] [ptr null, ptr @_ZTISt13runtime_error, ptr @_ZNSt13runtime_errorD1Ev, ptr @_ZNSt13runtime_errorD0Ev, ptr @_ZNKSt13runtime_error4whatEv] }, align 8
@_ZTVSt9exception = available_externally unnamed_addr constant { [5 x ptr] } { [5 x ptr] [ptr null, ptr @_ZTISt9exception, ptr @_ZNSt9exceptionD1Ev, ptr @_ZNSt9exceptionD0Ev, ptr @_ZNKSt9exception4whatEv] }, align 8

; Function Attrs: noinline noreturn nounwind uwtable
define linkonce_odr hidden void @__clang_call_terminate(ptr noundef %0) #10 comdat {
  %2 = call ptr @__cxa_begin_catch(ptr %0) #12
  call void @_ZSt9terminatev() #15
  unreachable
}

; Function Attrs: inlinehint mustprogress nounwind uwtable
define internal noundef i32 @_ZNSt3__112_GLOBAL__N_119__libcpp_atomic_addB8ne210000IiiEET_PS2_T0_i(ptr noundef %0, i32 noundef %1, i32 noundef %2) #4 {
  %4 = alloca ptr, align 8
  %5 = alloca i32, align 4
  %6 = alloca i32, align 4
  %7 = alloca i32, align 4
  %8 = alloca i32, align 4
  store ptr %0, ptr %4, align 8, !tbaa !37
  store i32 %1, ptr %5, align 4, !tbaa !39
  store i32 %2, ptr %6, align 4, !tbaa !39
  %9 = load ptr, ptr %4, align 8, !tbaa !37
  %10 = load i32, ptr %6, align 4, !tbaa !39
  %11 = load i32, ptr %5, align 4, !tbaa !39
  store i32 %11, ptr %7, align 4, !tbaa !39
  switch i32 %10, label %12 [
    i32 1, label %16
    i32 2, label %16
    i32 3, label %20
    i32 4, label %24
    i32 5, label %28
  ]

12:                                               ; preds = %3
  %13 = load i32, ptr %7, align 4
  %14 = atomicrmw add ptr %9, i32 %13 monotonic, align 4
  %15 = add i32 %14, %13
  store i32 %15, ptr %8, align 4
  br label %32

16:                                               ; preds = %3, %3
  %17 = load i32, ptr %7, align 4
  %18 = atomicrmw add ptr %9, i32 %17 acquire, align 4
  %19 = add i32 %18, %17
  store i32 %19, ptr %8, align 4
  br label %32

20:                                               ; preds = %3
  %21 = load i32, ptr %7, align 4
  %22 = atomicrmw add ptr %9, i32 %21 release, align 4
  %23 = add i32 %22, %21
  store i32 %23, ptr %8, align 4
  br label %32

24:                                               ; preds = %3
  %25 = load i32, ptr %7, align 4
  %26 = atomicrmw add ptr %9, i32 %25 acq_rel, align 4
  %27 = add i32 %26, %25
  store i32 %27, ptr %8, align 4
  br label %32

28:                                               ; preds = %3
  %29 = load i32, ptr %7, align 4
  %30 = atomicrmw add ptr %9, i32 %29 seq_cst, align 4
  %31 = add i32 %30, %29
  store i32 %31, ptr %8, align 4
  br label %32

32:                                               ; preds = %28, %24, %20, %16, %12
  %33 = load i32, ptr %8, align 4, !tbaa !39
  ret i32 %33
}

; Function Attrs: inlinehint mustprogress nounwind uwtable
define internal noundef ptr @_ZNSt3__115__refstring_imp12_GLOBAL__N_113rep_from_dataB8ne210000EPKc(ptr noundef %0) #4 {
  %2 = alloca ptr, align 8
  %3 = alloca ptr, align 8
  store ptr %0, ptr %2, align 8, !tbaa !17
  call void @llvm.lifetime.start.p0(i64 8, ptr %3) #12
  %4 = load ptr, ptr %2, align 8, !tbaa !17
  store ptr %4, ptr %3, align 8, !tbaa !17
  %5 = load ptr, ptr %3, align 8, !tbaa !17
  %6 = getelementptr inbounds i8, ptr %5, i64 -24
  call void @llvm.lifetime.end.p0(i64 8, ptr %3) #12
  ret ptr %6
}

; Function Attrs: inlinehint mustprogress nounwind uwtable
define linkonce_odr hidden noundef zeroext i1 @_ZNKSt3__118__libcpp_refstring15__uses_refcountB8ne210000Ev(ptr noundef nonnull align 8 dereferenceable(8) %0) #4 comdat align 2 {
  %2 = alloca ptr, align 8
  store ptr %0, ptr %2, align 8, !tbaa !15
  ret i1 true
}

; Function Attrs: inlinehint mustprogress nounwind uwtable
define linkonce_odr hidden void @_ZNSt3__118__libcpp_refstringC2B8ne210000ERKS0_(ptr noundef nonnull align 8 dereferenceable(8) %0, ptr noundef nonnull align 8 dereferenceable(8) %1) unnamed_addr #4 comdat align 2 personality ptr @__gxx_personality_v0 {
  %3 = alloca ptr, align 8
  %4 = alloca ptr, align 8
  store ptr %0, ptr %3, align 8, !tbaa !15
  store ptr %1, ptr %4, align 8, !tbaa !15
  %5 = load ptr, ptr %3, align 8
  %6 = getelementptr inbounds nuw %"class.std::__1::__libcpp_refstring", ptr %5, i32 0, i32 0
  %7 = load ptr, ptr %4, align 8, !tbaa !15
  %8 = getelementptr inbounds nuw %"class.std::__1::__libcpp_refstring", ptr %7, i32 0, i32 0
  %9 = load ptr, ptr %8, align 8, !tbaa !28
  store ptr %9, ptr %6, align 8, !tbaa !28
  %10 = invoke noundef zeroext i1 @_ZNKSt3__118__libcpp_refstring15__uses_refcountB8ne210000Ev(ptr noundef nonnull align 8 dereferenceable(8) %5)
          to label %11 unwind label %20

11:                                               ; preds = %2
  br i1 %10, label %12, label %19

12:                                               ; preds = %11
  %13 = getelementptr inbounds nuw %"class.std::__1::__libcpp_refstring", ptr %5, i32 0, i32 0
  %14 = load ptr, ptr %13, align 8, !tbaa !28
  %15 = call noundef ptr @_ZNSt3__115__refstring_imp12_GLOBAL__N_113rep_from_dataB8ne210000EPKc(ptr noundef %14) #12
  %16 = getelementptr inbounds nuw %"struct.std::__1::__refstring_imp::(anonymous namespace)::_Rep_base", ptr %15, i32 0, i32 2
  %17 = invoke noundef i32 @_ZNSt3__112_GLOBAL__N_119__libcpp_atomic_addB8ne210000IiiEET_PS2_T0_i(ptr noundef %16, i32 noundef 1, i32 noundef 5)
          to label %18 unwind label %20

18:                                               ; preds = %12
  br label %19

19:                                               ; preds = %18, %11
  ret void

20:                                               ; preds = %12, %2
  %21 = landingpad { ptr, i32 }
          catch ptr null
  %22 = extractvalue { ptr, i32 } %21, 0
  call void @__clang_call_terminate(ptr %22) #15
  unreachable
}

; Function Attrs: mustprogress nounwind uwtable
define linkonce_odr hidden void @_ZNSt9exceptionC2B8ne210000Ev(ptr noundef nonnull align 8 dereferenceable(8) %0) unnamed_addr #1 comdat align 2 {
  %2 = alloca ptr, align 8
  store ptr %0, ptr %2, align 8, !tbaa !13
  %3 = load ptr, ptr %2, align 8
  store ptr getelementptr inbounds inrange(-16, 24) ({ [5 x ptr] }, ptr @_ZTVSt9exception, i32 0, i32 0, i32 2), ptr %3, align 8, !tbaa !11
  ret void
}

; Function Attrs: mustprogress nounwind uwtable
define dso_local void @_ZNSt13runtime_errorC2ERKS_(ptr noundef nonnull align 8 dereferenceable(16) %0, ptr noundef nonnull align 8 dereferenceable(16) %1) unnamed_addr #1 align 2 {
  %3 = alloca ptr, align 8
  %4 = alloca ptr, align 8
  store ptr %0, ptr %3, align 8, !tbaa !34
  store ptr %1, ptr %4, align 8, !tbaa !34
  %5 = load ptr, ptr %3, align 8
  call void @_ZNSt9exceptionC2B8ne210000Ev(ptr noundef nonnull align 8 dereferenceable(8) %5) #12
  store ptr getelementptr inbounds inrange(-16, 24) ({ [5 x ptr] }, ptr @_ZTVSt13runtime_error, i32 0, i32 0, i32 2), ptr %5, align 8, !tbaa !11
  %6 = getelementptr inbounds nuw %"class.std::runtime_error", ptr %5, i32 0, i32 1
  %7 = load ptr, ptr %4, align 8, !tbaa !34
  %8 = getelementptr inbounds nuw %"class.std::runtime_error", ptr %7, i32 0, i32 1
  call void @_ZNSt3__118__libcpp_refstringC2B8ne210000ERKS0_(ptr noundef nonnull align 8 dereferenceable(8) %6, ptr noundef nonnull align 8 dereferenceable(8) %8) #12
  ret void
}